target datalayout = "e-m:e-p270:32:32-p271:32:32-p272:64:64-i64:64-i128:128-f80:128-n8:16:32:64-S128"
target triple = "x86_64-pc-linux-gnu"

%"struct.faiss::ScalarQuantizer::SQuantizer" = type { ptr }
%"struct.faiss::(anonymous namespace)::QuantizerTemplate.6" = type { %"struct.faiss::ScalarQuantizer::SQuantizer", i64, float, float }
%"struct.faiss::ScalarQuantizer::SQDistanceComputer" = type { %"struct.faiss::FlatCodesDistanceComputer", ptr }
%"struct.faiss::FlatCodesDistanceComputer" = type { %"struct.faiss::DistanceComputer", ptr, i64 }
%"struct.faiss::DistanceComputer" = type { ptr }
%"struct.faiss::(anonymous namespace)::DCTemplate.21" = type { %"struct.faiss::ScalarQuantizer::SQDistanceComputer", %"struct.faiss::(anonymous namespace)::QuantizerTemplate.6" }
%"struct.faiss::InvertedListScanner" = type { ptr, i64, i8, i8, ptr, i64 }
%"struct.faiss::(anonymous namespace)::IVFSQScannerIP.55" = type { %"struct.faiss::InvertedListScanner", %"struct.faiss::(anonymous namespace)::DCTemplate.21", i8, float }

; Function Attrs: mustprogress nounwind uwtable
define internal void @_ZN5faiss12_GLOBAL__N_114IVFSQScannerIPINS0_10DCTemplateINS0_17QuantizerTemplateINS0_9Codec4bitELb1ELi1EEENS0_12SimilarityIPILi1EEELi1EEELi0EE8set_listElf(ptr noundef nonnull align 8 dereferenceable(104) %0, i64 noundef %1, float noundef %2) unnamed_addr #1 align 2 {
  %4 = alloca ptr, align 8
  %5 = alloca i64, align 8
  %6 = alloca float, align 4
  store ptr %0, ptr %4, align 8
  store i64 %1, ptr %5, align 8
  store float %2, ptr %6, align 4
  %7 = load ptr, ptr %4, align 8
  %8 = load i64, ptr %5, align 8
  %9 = getelementptr inbounds %"struct.faiss::InvertedListScanner", ptr %7, i32 0, i32 1
  store i64 %8, ptr %9, align 8
  %10 = getelementptr inbounds %"struct.faiss::(anonymous namespace)::IVFSQScannerIP.55", ptr %7, i32 0, i32 2
  %11 = load i8, ptr %10, align 8
  %12 = trunc i8 %11 to i1
  br i1 %12, label %13, label %15

13:                                               ; preds = %3
  %14 = load float, ptr %6, align 4
  br label %16

15:                                               ; preds = %3
  br label %16

16:                                               ; preds = %15, %13
  %17 = phi float [ %14, %13 ], [ 0.000000e+00, %15 ]
  %18 = getelementptr inbounds %"struct.faiss::(anonymous namespace)::IVFSQScannerIP.55", ptr %7, i32 0, i32 3
  store float %17, ptr %18, align 4
  ret void
}