; Function Attrs: mustprogress nofree norecurse nosync nounwind willreturn memory(argmem: readwrite) uwtable
define internal void @_ZN5faiss12_GLOBAL__N_114IVFSQScannerIPINS0_10DCTemplateINS0_17QuantizerTemplateINS0_9Codec4bitELb1ELi1EEENS0_12SimilarityIPILi1EEELi1EEELi0EE8set_listElf(ptr nocapture noundef nonnull align 8 dereferenceable(104) %0, i64 noundef %1, float noundef %2) unnamed_addr #3 align 2 {
  %4 = getelementptr inbounds i8, ptr %0, i64 8
  store i64 %1, ptr %4, align 8
  %5 = getelementptr inbounds i8, ptr %0, i64 96
  %6 = load i8, ptr %5, align 8
  %7 = and i8 %6, 1
  %.not = icmp eq i8 %7, 0
  %8 = select i1 %.not, float 0.000000e+00, float %2
  %9 = getelementptr inbounds i8, ptr %0, i64 100
  store float %8, ptr %9, align 4
  ret void
}